target datalayout = "e-m:e-p270:32:32-p271:32:32-p272:64:64-i64:64-i128:128-f80:128-n8:16:32:64-S128"
target triple = "x86_64-pc-linux-gnu"

%struct.SDL_Haptic = type { i32, ptr, ptr, i32, i32, i32, i32, ptr, i32, i32, %union.SDL_HapticEffect, ptr }
%union.SDL_HapticEffect = type { %struct.SDL_HapticCustom, [16 x i8] }
%struct.SDL_HapticCustom = type { i16, %struct.SDL_HapticDirection, i32, i16, i16, i16, i8, i16, i16, ptr, i16, i16, i16, i16 }
%struct.SDL_HapticDirection = type { i8, [3 x i32] }
%struct.haptic_effect = type { %union.SDL_HapticEffect, ptr }
%struct.SDL_HapticPeriodic = type { i16, %struct.SDL_HapticDirection, i32, i16, i16, i16, i16, i16, i16, i16, i16, i16, i16, i16 }
%struct.SDL_HapticLeftRight = type { i16, i32, i16, i16 }

@.str = private unnamed_addr constant [26 x i8] c"Parameter '%s' is invalid\00", align 1
@.str.1 = private unnamed_addr constant [7 x i8] c"haptic\00", align 1
@.str.19 = private unnamed_addr constant [55 x i8] c"Haptic: Rumble effect not initialized on haptic device\00", align 1
@.str.23 = private unnamed_addr constant [35 x i8] c"Haptic: Invalid effect identifier.\00", align 1

; Function Attrs: nounwind uwtable
define internal zeroext i1 @ValidEffect(ptr noundef %0, i32 noundef %1) #0 {
  %3 = alloca i1, align 1
  %4 = alloca ptr, align 8
  %5 = alloca i32, align 4
  store ptr %0, ptr %4, align 8
  store i32 %1, ptr %5, align 4
  %6 = load i32, ptr %5, align 4
  %7 = icmp slt i32 %6, 0
  br i1 %7, label %14, label %8

8:                                                ; preds = %2
  %9 = load i32, ptr %5, align 4
  %10 = load ptr, ptr %4, align 8
  %11 = getelementptr inbounds nuw %struct.SDL_Haptic, ptr %10, i32 0, i32 3
  %12 = load i32, ptr %11, align 8
  %13 = icmp sge i32 %9, %12
  br i1 %13, label %14, label %16

14:                                               ; preds = %8, %2
  %15 = call zeroext i1 (ptr, ...) @SDL_SetError_REAL(ptr noundef @.str.23)
  store i1 false, ptr %3, align 1
  br label %17

16:                                               ; preds = %8
  store i1 true, ptr %3, align 1
  br label %17

17:                                               ; preds = %16, %14
  %18 = load i1, ptr %3, align 1
  ret i1 %18
}

; Function Attrs: nounwind uwtable
define hidden zeroext i1 @SDL_RunHapticEffect_REAL(ptr noundef %0, i32 noundef %1, i32 noundef %2) #0 {
  %4 = alloca i1, align 1
  %5 = alloca ptr, align 8
  %6 = alloca i32, align 4
  %7 = alloca i32, align 4
  store ptr %0, ptr %5, align 8
  store i32 %1, ptr %6, align 4
  store i32 %2, ptr %7, align 4
  %8 = load ptr, ptr %5, align 8
  %9 = call zeroext i1 @SDL_ObjectValid(ptr noundef %8, i32 noundef 6)
  br i1 %9, label %12, label %10

10:                                               ; preds = %3
  %11 = call zeroext i1 (ptr, ...) @SDL_SetError_REAL(ptr noundef @.str, ptr noundef @.str.1)
  store i1 false, ptr %4, align 1
  br label %37

12:                                               ; preds = %3
  %13 = load ptr, ptr %5, align 8
  %14 = call zeroext i1 @SDL_HIDAPI_HapticIsHidapi(ptr noundef %13)
  br i1 %14, label %15, label %20

15:                                               ; preds = %12
  %16 = load ptr, ptr %5, align 8
  %17 = load i32, ptr %6, align 4
  %18 = load i32, ptr %7, align 4
  %19 = call zeroext i1 @SDL_HIDAPI_HapticRunEffect(ptr noundef %16, i32 noundef %17, i32 noundef %18)
  store i1 %19, ptr %4, align 1
  br label %37

20:                                               ; preds = %12
  %21 = load ptr, ptr %5, align 8
  %22 = load i32, ptr %6, align 4
  %23 = call zeroext i1 @ValidEffect(ptr noundef %21, i32 noundef %22)
  br i1 %23, label %25, label %24

24:                                               ; preds = %20
  store i1 false, ptr %4, align 1
  br label %37

25:                                               ; preds = %20
  %26 = load ptr, ptr %5, align 8
  %27 = load ptr, ptr %5, align 8
  %28 = getelementptr inbounds nuw %struct.SDL_Haptic, ptr %27, i32 0, i32 2
  %29 = load ptr, ptr %28, align 8
  %30 = load i32, ptr %6, align 4
  %31 = sext i32 %30 to i64
  %32 = getelementptr inbounds %struct.haptic_effect, ptr %29, i64 %31
  %33 = load i32, ptr %7, align 4
  %34 = call zeroext i1 @SDL_SYS_HapticRunEffect(ptr noundef %26, ptr noundef %32, i32 noundef %33)
  br i1 %34, label %36, label %35

35:                                               ; preds = %25
  store i1 false, ptr %4, align 1
  br label %37

36:                                               ; preds = %25
  store i1 true, ptr %4, align 1
  br label %37

37:                                               ; preds = %36, %35, %24, %15, %10
  %38 = load i1, ptr %4, align 1
  ret i1 %38
}

; Function Attrs: nounwind uwtable
define hidden zeroext i1 @SDL_PlayHapticRumble_REAL(ptr noundef %0, float noundef %1, i32 noundef %2) #0 {
  %4 = alloca i1, align 1
  %5 = alloca ptr, align 8
  %6 = alloca float, align 4
  %7 = alloca i32, align 4
  %8 = alloca ptr, align 8
  %9 = alloca i16, align 2
  %10 = alloca i32, align 4
  store ptr %0, ptr %5, align 8
  store float %1, ptr %6, align 4
  store i32 %2, ptr %7, align 4
  call void @llvm.lifetime.start.p0(i64 8, ptr %8) #7
  call void @llvm.lifetime.start.p0(i64 2, ptr %9) #7
  %11 = load ptr, ptr %5, align 8
  %12 = call zeroext i1 @SDL_ObjectValid(ptr noundef %11, i32 noundef 6)
  br i1 %12, label %15, label %13

13:                                               ; preds = %3
  %14 = call zeroext i1 (ptr, ...) @SDL_SetError_REAL(ptr noundef @.str, ptr noundef @.str.1)
  store i1 false, ptr %4, align 1
  store i32 1, ptr %10, align 4
  br label %82

15:                                               ; preds = %3
  %16 = load ptr, ptr %5, align 8
  %17 = getelementptr inbounds nuw %struct.SDL_Haptic, ptr %16, i32 0, i32 9
  %18 = load i32, ptr %17, align 4
  %19 = icmp slt i32 %18, 0
  br i1 %19, label %20, label %22

20:                                               ; preds = %15
  %21 = call zeroext i1 (ptr, ...) @SDL_SetError_REAL(ptr noundef @.str.19)
  store i1 %21, ptr %4, align 1
  store i32 1, ptr %10, align 4
  br label %82

22:                                               ; preds = %15
  %23 = load float, ptr %6, align 4
  %24 = fcmp ogt float %23, 1.000000e+00
  br i1 %24, label %25, label %26

25:                                               ; preds = %22
  store float 1.000000e+00, ptr %6, align 4
  br label %31

26:                                               ; preds = %22
  %27 = load float, ptr %6, align 4
  %28 = fcmp olt float %27, 0.000000e+00
  br i1 %28, label %29, label %30

29:                                               ; preds = %26
  store float 0.000000e+00, ptr %6, align 4
  br label %30

30:                                               ; preds = %29, %26
  br label %31

31:                                               ; preds = %30, %25
  %32 = load float, ptr %6, align 4
  %33 = fmul float 3.276700e+04, %32
  %34 = fptosi float %33 to i16
  store i16 %34, ptr %9, align 2
  %35 = load ptr, ptr %5, align 8
  %36 = getelementptr inbounds nuw %struct.SDL_Haptic, ptr %35, i32 0, i32 10
  store ptr %36, ptr %8, align 8
  %37 = load ptr, ptr %8, align 8
  %38 = load i16, ptr %37, align 8
  %39 = zext i16 %38 to i32
  %40 = icmp eq i32 %39, 2
  br i1 %40, label %41, label %48

41:                                               ; preds = %31
  %42 = load i16, ptr %9, align 2
  %43 = load ptr, ptr %8, align 8
  %44 = getelementptr inbounds nuw %struct.SDL_HapticPeriodic, ptr %43, i32 0, i32 7
  store i16 %42, ptr %44, align 8
  %45 = load i32, ptr %7, align 4
  %46 = load ptr, ptr %8, align 8
  %47 = getelementptr inbounds nuw %struct.SDL_HapticPeriodic, ptr %46, i32 0, i32 2
  store i32 %45, ptr %47, align 4
  br label %67

48:                                               ; preds = %31
  %49 = load ptr, ptr %8, align 8
  %50 = load i16, ptr %49, align 8
  %51 = zext i16 %50 to i32
  %52 = icmp eq i32 %51, 2048
  br i1 %52, label %53, label %62

53:                                               ; preds = %48
  %54 = load i16, ptr %9, align 2
  %55 = load ptr, ptr %8, align 8
  %56 = getelementptr inbounds nuw %struct.SDL_HapticLeftRight, ptr %55, i32 0, i32 2
  store i16 %54, ptr %56, align 8
  %57 = load ptr, ptr %8, align 8
  %58 = getelementptr inbounds nuw %struct.SDL_HapticLeftRight, ptr %57, i32 0, i32 3
  store i16 %54, ptr %58, align 2
  %59 = load i32, ptr %7, align 4
  %60 = load ptr, ptr %8, align 8
  %61 = getelementptr inbounds nuw %struct.SDL_HapticLeftRight, ptr %60, i32 0, i32 1
  store i32 %59, ptr %61, align 4
  br label %66

62:                                               ; preds = %48
  br label %63

63:                                               ; preds = %62
  br label %64

64:                                               ; preds = %63
  br label %65

65:                                               ; preds = %64
  br label %66

66:                                               ; preds = %65, %53
  br label %67

67:                                               ; preds = %66, %41
  %68 = load ptr, ptr %5, align 8
  %69 = load ptr, ptr %5, align 8
  %70 = getelementptr inbounds nuw %struct.SDL_Haptic, ptr %69, i32 0, i32 9
  %71 = load i32, ptr %70, align 4
  %72 = load ptr, ptr %5, align 8
  %73 = getelementptr inbounds nuw %struct.SDL_Haptic, ptr %72, i32 0, i32 10
  %74 = call zeroext i1 @SDL_UpdateHapticEffect_REAL(ptr noundef %68, i32 noundef %71, ptr noundef %73)
  br i1 %74, label %76, label %75

75:                                               ; preds = %67
  store i1 false, ptr %4, align 1
  store i32 1, ptr %10, align 4
  br label %82

76:                                               ; preds = %67
  %77 = load ptr, ptr %5, align 8
  %78 = load ptr, ptr %5, align 8
  %79 = getelementptr inbounds nuw %struct.SDL_Haptic, ptr %78, i32 0, i32 9
  %80 = load i32, ptr %79, align 4
  %81 = call zeroext i1 @SDL_RunHapticEffect_REAL(ptr noundef %77, i32 noundef %80, i32 noundef 1)
  store i1 %81, ptr %4, align 1
  store i32 1, ptr %10, align 4
  br label %82

82:                                               ; preds = %76, %75, %20, %13
  call void @llvm.lifetime.end.p0(i64 2, ptr %9) #7
  call void @llvm.lifetime.end.p0(i64 8, ptr %8) #7
  %83 = load i1, ptr %4, align 1
  ret i1 %83
}