; Function Attrs: nounwind uwtable
define hidden zeroext i1 @SDL_PlayHapticRumble_REAL(ptr noundef %0, float noundef %1, i32 noundef %2) local_unnamed_addr #0 {
  %4 = tail call zeroext i1 @SDL_ObjectValid(ptr noundef %0, i32 noundef 6) #9
  br i1 %4, label %7, label %5

5:                                                ; preds = %3
  %6 = tail call zeroext i1 (ptr, ...) @SDL_SetError_REAL(ptr noundef nonnull @.str, ptr noundef nonnull @.str.1) #9
  br label %SDL_RunHapticEffect_REAL.exit

7:                                                ; preds = %3
  %8 = getelementptr inbounds nuw i8, ptr %0, i64 52
  %9 = load i32, ptr %8, align 4
  %10 = icmp slt i32 %9, 0
  br i1 %10, label %11, label %13

11:                                               ; preds = %7
  %12 = tail call zeroext i1 (ptr, ...) @SDL_SetError_REAL(ptr noundef nonnull @.str.19) #9
  br label %SDL_RunHapticEffect_REAL.exit

13:                                               ; preds = %7
  %14 = fcmp ogt float %1, 1.000000e+00
  br i1 %14, label %18, label %15

15:                                               ; preds = %13
  %16 = fcmp olt float %1, 0.000000e+00
  br i1 %16, label %17, label %18

17:                                               ; preds = %15
  br label %18

18:                                               ; preds = %13, %15, %17
  %.022 = phi float [ 0.000000e+00, %17 ], [ %1, %15 ], [ 1.000000e+00, %13 ]
  %19 = fmul float %.022, 3.276700e+04
  %20 = fptosi float %19 to i16
  %21 = getelementptr inbounds nuw i8, ptr %0, i64 56
  %22 = load i16, ptr %21, align 8
  switch i16 %22, label %29 [
    i16 2, label %23
    i16 2048, label %25
  ]

23:                                               ; preds = %18
  %24 = getelementptr inbounds nuw i8, ptr %0, i64 88
  store i16 %20, ptr %24, align 8
  br label %.sink.split

25:                                               ; preds = %18
  %26 = getelementptr inbounds nuw i8, ptr %0, i64 64
  store i16 %20, ptr %26, align 8
  %27 = getelementptr inbounds nuw i8, ptr %0, i64 66
  store i16 %20, ptr %27, align 2
  br label %.sink.split

.sink.split:                                      ; preds = %23, %25
  %.sink25 = phi i64 [ 60, %25 ], [ 76, %23 ]
  %28 = getelementptr inbounds nuw i8, ptr %0, i64 %.sink25
  store i32 %2, ptr %28, align 4
  br label %29

29:                                               ; preds = %.sink.split, %18
  %30 = tail call zeroext i1 @SDL_UpdateHapticEffect_REAL(ptr noundef nonnull %0, i32 noundef %9, ptr noundef nonnull %21)
  br i1 %30, label %31, label %SDL_RunHapticEffect_REAL.exit

31:                                               ; preds = %29
  %32 = load i32, ptr %8, align 4
  %33 = tail call zeroext i1 @SDL_ObjectValid(ptr noundef nonnull %0, i32 noundef 6) #9
  br i1 %33, label %36, label %34

34:                                               ; preds = %31
  %35 = tail call zeroext i1 (ptr, ...) @SDL_SetError_REAL(ptr noundef nonnull @.str, ptr noundef nonnull @.str.1) #9
  br label %SDL_RunHapticEffect_REAL.exit

36:                                               ; preds = %31
  %37 = tail call zeroext i1 @SDL_HIDAPI_HapticIsHidapi(ptr noundef nonnull %0) #9
  br i1 %37, label %38, label %40

38:                                               ; preds = %36
  %39 = tail call zeroext i1 @SDL_HIDAPI_HapticRunEffect(ptr noundef nonnull %0, i32 noundef %32, i32 noundef 1) #9
  br label %SDL_RunHapticEffect_REAL.exit

40:                                               ; preds = %36
  %41 = icmp slt i32 %32, 0
  br i1 %41, label %ValidEffect.exit.i, label %42

42:                                               ; preds = %40
  %43 = getelementptr inbounds nuw i8, ptr %0, i64 24
  %44 = load i32, ptr %43, align 8
  %.not.i.i = icmp slt i32 %32, %44
  br i1 %.not.i.i, label %46, label %ValidEffect.exit.i

ValidEffect.exit.i:                               ; preds = %42, %40
  %45 = tail call zeroext i1 (ptr, ...) @SDL_SetError_REAL(ptr noundef nonnull @.str.23) #9
  br label %SDL_RunHapticEffect_REAL.exit

46:                                               ; preds = %42
  %47 = getelementptr inbounds nuw i8, ptr %0, i64 16
  %48 = load ptr, ptr %47, align 8
  %49 = zext nneg i32 %32 to i64
  %50 = getelementptr inbounds nuw %struct.haptic_effect, ptr %48, i64 %49
  %51 = tail call zeroext i1 @SDL_SYS_HapticRunEffect(ptr noundef nonnull %0, ptr noundef %50, i32 noundef 1) #9
  br label %SDL_RunHapticEffect_REAL.exit

SDL_RunHapticEffect_REAL.exit:                    ; preds = %46, %ValidEffect.exit.i, %38, %34, %29, %11, %5
  %.0 = phi i1 [ %12, %11 ], [ false, %5 ], [ false, %29 ], [ %39, %38 ], [ false, %34 ], [ false, %ValidEffect.exit.i ], [ %51, %46 ]
  ret i1 %.0
}